; ModuleID = '23/609.c'
source_filename = "23/609.c"
target datalayout = "e-m:e-p270:32:32-p271:32:32-p272:64:64-i64:64-f80:128-n8:16:32:64-S128"
target triple = "x86_64-pc-linux-gnu"

@.str = private unnamed_addr constant [5 x i8] c"%s%c\00", align 1
@.str.1 = private unnamed_addr constant [4 x i8] c"%s \00", align 1
@.str.2 = private unnamed_addr constant [3 x i8] c"%s\00", align 1

; Function Attrs: noinline nounwind uwtable
define dso_local void @main() #0 {
  %1 = alloca [50 x [1000 x i8]], align 16
  %2 = alloca i8, align 1
  %3 = alloca i32, align 4
  %4 = alloca i32, align 4
  store i32 0, i32* %3, align 4
  br label %5

5:                                                ; preds = %13, %0
  %6 = load i32, i32* %3, align 4
  %7 = add nsw i32 %6, 1
  store i32 %7, i32* %3, align 4
  %8 = load i32, i32* %3, align 4
  %9 = sext i32 %8 to i64
  %10 = getelementptr inbounds [50 x [1000 x i8]], [50 x [1000 x i8]]* %1, i64 0, i64 %9
  %11 = getelementptr inbounds [1000 x i8], [1000 x i8]* %10, i64 0, i64 0
  %12 = call i32 (i8*, ...) @__isoc99_scanf(i8* getelementptr inbounds ([5 x i8], [5 x i8]* @.str, i64 0, i64 0), i8* %11, i8* %2)
  br label %13

13:                                               ; preds = %5
  %14 = load i8, i8* %2, align 1
  %15 = sext i8 %14 to i32
  %16 = icmp ne i32 %15, 10
  br i1 %16, label %5, label %17

17:                                               ; preds = %13
  %18 = load i32, i32* %3, align 4
  store i32 %18, i32* %4, align 4
  %19 = load i32, i32* %4, align 4
  store i32 %19, i32* %3, align 4
  br label %20

20:                                               ; preds = %29, %17
  %21 = load i32, i32* %3, align 4
  %22 = icmp sge i32 %21, 2
  br i1 %22, label %23, label %32

23:                                               ; preds = %20
  %24 = load i32, i32* %3, align 4
  %25 = sext i32 %24 to i64
  %26 = getelementptr inbounds [50 x [1000 x i8]], [50 x [1000 x i8]]* %1, i64 0, i64 %25
  %27 = getelementptr inbounds [1000 x i8], [1000 x i8]* %26, i64 0, i64 0
  %28 = call i32 (i8*, ...) @printf(i8* getelementptr inbounds ([4 x i8], [4 x i8]* @.str.1, i64 0, i64 0), i8* %27)
  br label %29

29:                                               ; preds = %23
  %30 = load i32, i32* %3, align 4
  %31 = add nsw i32 %30, -1
  store i32 %31, i32* %3, align 4
  br label %20

32:                                               ; preds = %20
  %33 = getelementptr inbounds [50 x [1000 x i8]], [50 x [1000 x i8]]* %1, i64 0, i64 1
  %34 = getelementptr inbounds [1000 x i8], [1000 x i8]* %33, i64 0, i64 0
  %35 = call i32 (i8*, ...) @printf(i8* getelementptr inbounds ([3 x i8], [3 x i8]* @.str.2, i64 0, i64 0), i8* %34)
  ret void
}

declare dso_local i32 @__isoc99_scanf(i8*, ...) #1

declare dso_local i32 @printf(i8*, ...) #1


!llvm.module.flags = !{!0}
!llvm.ident = !{!1}

!0 = !{i32 1, !"wchar_size", i32 4}
!1 = !{!"clang version 10.0.0-4ubuntu1 "}
